target datalayout = "e-m:e-p270:32:32-p271:32:32-p272:64:64-i64:64-i128:128-f80:128-n8:16:32:64-S128"
target triple = "x86_64-pc-linux-gnu"

%class.cache_sim_t = type <{ ptr, %class.lfsr_t, [4 x i8], ptr, i64, i64, i64, i64, ptr, i64, i64, i64, i64, i64, i64, i64, %"class.std::__cxx11::basic_string", i8, [7 x i8] }>
%class.lfsr_t = type { i32 }
%"class.std::__cxx11::basic_string" = type { %"struct.std::__cxx11::basic_string<char>::_Alloc_hider", i64, %union.anon }
%"struct.std::__cxx11::basic_string<char>::_Alloc_hider" = type { ptr }
%union.anon = type { i64, [8 x i8] }

; Function Attrs: mustprogress uwtable
define void @_ZN11cache_sim_t16clean_invalidateEmmbb(ptr noundef nonnull align 8 dereferenceable(153) %0, i64 noundef %1, i64 noundef %2, i1 noundef zeroext %3, i1 noundef zeroext %4) #4 align 2 {
  %6 = alloca ptr, align 8
  %7 = alloca i64, align 8
  %8 = alloca i64, align 8
  %9 = alloca i8, align 1
  %10 = alloca i8, align 1
  %11 = alloca i64, align 8
  %12 = alloca i64, align 8
  %13 = alloca i64, align 8
  %14 = alloca ptr, align 8
  store ptr %0, ptr %6, align 8
  store i64 %1, ptr %7, align 8
  store i64 %2, ptr %8, align 8
  %15 = zext i1 %3 to i8
  store i8 %15, ptr %9, align 1
  %16 = zext i1 %4 to i8
  store i8 %16, ptr %10, align 1
  %17 = load ptr, ptr %6, align 8
  %18 = load i64, ptr %7, align 8
  %19 = getelementptr inbounds %class.cache_sim_t, ptr %17, i32 0, i32 6
  %20 = load i64, ptr %19, align 8
  %21 = sub i64 %20, 1
  %22 = xor i64 %21, -1
  %23 = and i64 %18, %22
  store i64 %23, ptr %11, align 8
  %24 = load i64, ptr %7, align 8
  %25 = load i64, ptr %8, align 8
  %26 = add i64 %24, %25
  %27 = getelementptr inbounds %class.cache_sim_t, ptr %17, i32 0, i32 6
  %28 = load i64, ptr %27, align 8
  %29 = add i64 %26, %28
  %30 = sub i64 %29, 1
  %31 = getelementptr inbounds %class.cache_sim_t, ptr %17, i32 0, i32 6
  %32 = load i64, ptr %31, align 8
  %33 = sub i64 %32, 1
  %34 = xor i64 %33, -1
  %35 = and i64 %30, %34
  store i64 %35, ptr %12, align 8
  %36 = load i64, ptr %11, align 8
  store i64 %36, ptr %13, align 8
  br label %37

37:                                               ; preds = %73, %5
  %38 = load i64, ptr %13, align 8
  %39 = load i64, ptr %12, align 8
  %40 = icmp ult i64 %38, %39
  br i1 %40, label %41, label %78

41:                                               ; preds = %37
  %42 = load i64, ptr %13, align 8
  %43 = load ptr, ptr %17, align 8
  %44 = getelementptr inbounds ptr, ptr %43, i64 2
  %45 = load ptr, ptr %44, align 8
  %46 = call noundef ptr %45(ptr noundef nonnull align 8 dereferenceable(153) %17, i64 noundef %42)
  store ptr %46, ptr %14, align 8
  %47 = load ptr, ptr %14, align 8
  %48 = icmp ne ptr %47, null
  br i1 %48, label %49, label %73

49:                                               ; preds = %41
  %50 = load i8, ptr %9, align 1
  %51 = trunc i8 %50 to i1
  br i1 %51, label %52, label %65

52:                                               ; preds = %49
  %53 = load ptr, ptr %14, align 8
  %54 = load i64, ptr %53, align 8
  %55 = and i64 %54, 4611686018427387904
  %56 = icmp ne i64 %55, 0
  br i1 %56, label %57, label %64

57:                                               ; preds = %52
  %58 = getelementptr inbounds %class.cache_sim_t, ptr %17, i32 0, i32 15
  %59 = load i64, ptr %58, align 8
  %60 = add i64 %59, 1
  store i64 %60, ptr %58, align 8
  %61 = load ptr, ptr %14, align 8
  %62 = load i64, ptr %61, align 8
  %63 = and i64 %62, -4611686018427387905
  store i64 %63, ptr %61, align 8
  br label %64

64:                                               ; preds = %57, %52
  br label %65

65:                                               ; preds = %64, %49
  %66 = load i8, ptr %10, align 1
  %67 = trunc i8 %66 to i1
  br i1 %67, label %68, label %72

68:                                               ; preds = %65
  %69 = load ptr, ptr %14, align 8
  %70 = load i64, ptr %69, align 8
  %71 = and i64 %70, 9223372036854775807
  store i64 %71, ptr %69, align 8
  br label %72

72:                                               ; preds = %68, %65
  br label %73

73:                                               ; preds = %72, %41
  %74 = getelementptr inbounds %class.cache_sim_t, ptr %17, i32 0, i32 6
  %75 = load i64, ptr %74, align 8
  %76 = load i64, ptr %13, align 8
  %77 = add i64 %76, %75
  store i64 %77, ptr %13, align 8
  br label %37, !llvm.loop !7

78:                                               ; preds = %37
  %79 = getelementptr inbounds %class.cache_sim_t, ptr %17, i32 0, i32 3
  %80 = load ptr, ptr %79, align 8
  %81 = icmp ne ptr %80, null
  br i1 %81, label %82, label %91

82:                                               ; preds = %78
  %83 = getelementptr inbounds %class.cache_sim_t, ptr %17, i32 0, i32 3
  %84 = load ptr, ptr %83, align 8
  %85 = load i64, ptr %7, align 8
  %86 = load i64, ptr %8, align 8
  %87 = load i8, ptr %9, align 1
  %88 = trunc i8 %87 to i1
  %89 = load i8, ptr %10, align 1
  %90 = trunc i8 %89 to i1
  call void @_ZN11cache_sim_t16clean_invalidateEmmbb(ptr noundef nonnull align 8 dereferenceable(153) %84, i64 noundef %85, i64 noundef %86, i1 noundef zeroext %88, i1 noundef zeroext %90)
  br label %91

91:                                               ; preds = %82, %78
  ret void
}