; Function Attrs: mustprogress uwtable
define void @_ZN11cache_sim_t16clean_invalidateEmmbb(ptr noundef nonnull align 8 dereferenceable(153) %0, i64 noundef %1, i64 noundef %2, i1 noundef zeroext %3, i1 noundef zeroext %4) local_unnamed_addr #3 align 2 {
  %6 = add i64 %1, -1
  %7 = add i64 %6, %2
  br i1 %3, label %.split.us, label %.split

.split.us:                                        ; preds = %5
  br i1 %4, label %tailrecurse.us.us, label %tailrecurse.us

tailrecurse.us.us:                                ; preds = %.split.us, %._crit_edge.split.us.us.split.us.us
  %.tr.us.us = phi ptr [ %16, %._crit_edge.split.us.us.split.us.us ], [ %0, %.split.us ]
  %8 = getelementptr inbounds i8, ptr %.tr.us.us, i64 40
  %9 = load i64, ptr %8, align 8
  %10 = sub i64 0, %9
  %11 = and i64 %10, %1
  %12 = add i64 %7, %9
  %13 = and i64 %12, %10
  %14 = icmp ult i64 %11, %13
  br i1 %14, label %.lr.ph.us.us, label %._crit_edge.split.us.us.split.us.us

._crit_edge.split.us.us.split.us.us:              ; preds = %34, %tailrecurse.us.us
  %15 = getelementptr inbounds i8, ptr %.tr.us.us, i64 16
  %16 = load ptr, ptr %15, align 8
  %.not.us.us = icmp eq ptr %16, null
  br i1 %.not.us.us, label %.split30.us, label %tailrecurse.us.us

.lr.ph.us.us:                                     ; preds = %tailrecurse.us.us
  %17 = getelementptr inbounds i8, ptr %.tr.us.us, i64 112
  br label %18

18:                                               ; preds = %34, %.lr.ph.us.us
  %.026.us.us.us.us = phi i64 [ %11, %.lr.ph.us.us ], [ %36, %34 ]
  %19 = load ptr, ptr %.tr.us.us, align 8
  %20 = getelementptr inbounds i8, ptr %19, i64 16
  %21 = load ptr, ptr %20, align 8
  %22 = tail call noundef ptr %21(ptr noundef nonnull align 8 dereferenceable(153) %.tr.us.us, i64 noundef %.026.us.us.us.us)
  %.not20.us.us.us.us = icmp eq ptr %22, null
  br i1 %.not20.us.us.us.us, label %34, label %23

23:                                               ; preds = %18
  %24 = load i64, ptr %22, align 8
  %25 = and i64 %24, 4611686018427387904
  %.not21.us.us.us.us = icmp eq i64 %25, 0
  br i1 %.not21.us.us.us.us, label %31, label %26

26:                                               ; preds = %23
  %27 = load i64, ptr %17, align 8
  %28 = add i64 %27, 1
  store i64 %28, ptr %17, align 8
  %29 = load i64, ptr %22, align 8
  %30 = and i64 %29, -4611686018427387905
  br label %31

31:                                               ; preds = %26, %23
  %32 = phi i64 [ %30, %26 ], [ %24, %23 ]
  %33 = and i64 %32, 9223372036854775807
  store i64 %33, ptr %22, align 8
  br label %34

34:                                               ; preds = %31, %18
  %35 = load i64, ptr %8, align 8
  %36 = add i64 %35, %.026.us.us.us.us
  %37 = icmp ult i64 %36, %13
  br i1 %37, label %18, label %._crit_edge.split.us.us.split.us.us, !llvm.loop !8

tailrecurse.us:                                   ; preds = %.split.us, %._crit_edge.split.us.us.split
  %.tr.us = phi ptr [ %46, %._crit_edge.split.us.us.split ], [ %0, %.split.us ]
  %38 = getelementptr inbounds i8, ptr %.tr.us, i64 40
  %39 = load i64, ptr %38, align 8
  %40 = sub i64 0, %39
  %41 = and i64 %40, %1
  %42 = add i64 %7, %39
  %43 = and i64 %42, %40
  %44 = icmp ult i64 %41, %43
  br i1 %44, label %.lr.ph.us, label %._crit_edge.split.us.us.split

._crit_edge.split.us.us.split:                    ; preds = %61, %tailrecurse.us
  %45 = getelementptr inbounds i8, ptr %.tr.us, i64 16
  %46 = load ptr, ptr %45, align 8
  %.not.us = icmp eq ptr %46, null
  br i1 %.not.us, label %.split30.us, label %tailrecurse.us

.lr.ph.us:                                        ; preds = %tailrecurse.us
  %47 = getelementptr inbounds i8, ptr %.tr.us, i64 112
  br label %48

48:                                               ; preds = %61, %.lr.ph.us
  %.026.us.us = phi i64 [ %41, %.lr.ph.us ], [ %63, %61 ]
  %49 = load ptr, ptr %.tr.us, align 8
  %50 = getelementptr inbounds i8, ptr %49, i64 16
  %51 = load ptr, ptr %50, align 8
  %52 = tail call noundef ptr %51(ptr noundef nonnull align 8 dereferenceable(153) %.tr.us, i64 noundef %.026.us.us)
  %.not20.us.us = icmp eq ptr %52, null
  br i1 %.not20.us.us, label %61, label %53

53:                                               ; preds = %48
  %54 = load i64, ptr %52, align 8
  %55 = and i64 %54, 4611686018427387904
  %.not21.us.us = icmp eq i64 %55, 0
  br i1 %.not21.us.us, label %61, label %56

56:                                               ; preds = %53
  %57 = load i64, ptr %47, align 8
  %58 = add i64 %57, 1
  store i64 %58, ptr %47, align 8
  %59 = load i64, ptr %52, align 8
  %60 = and i64 %59, -4611686018427387905
  store i64 %60, ptr %52, align 8
  br label %61

61:                                               ; preds = %53, %56, %48
  %62 = load i64, ptr %38, align 8
  %63 = add i64 %62, %.026.us.us
  %64 = icmp ult i64 %63, %43
  br i1 %64, label %48, label %._crit_edge.split.us.us.split, !llvm.loop !8

.split:                                           ; preds = %5
  br i1 %4, label %tailrecurse.us31, label %tailrecurse

tailrecurse.us31:                                 ; preds = %.split, %._crit_edge.split.split.us.us
  %.tr.us32 = phi ptr [ %73, %._crit_edge.split.split.us.us ], [ %0, %.split ]
  %65 = getelementptr inbounds i8, ptr %.tr.us32, i64 40
  %66 = load i64, ptr %65, align 8
  %67 = sub i64 0, %66
  %68 = and i64 %67, %1
  %69 = add i64 %7, %66
  %70 = and i64 %69, %67
  %71 = icmp ult i64 %68, %70
  br i1 %71, label %.lr.ph.us34, label %._crit_edge.split.split.us.us

._crit_edge.split.split.us.us:                    ; preds = %81, %tailrecurse.us31
  %72 = getelementptr inbounds i8, ptr %.tr.us32, i64 16
  %73 = load ptr, ptr %72, align 8
  %.not.us33 = icmp eq ptr %73, null
  br i1 %.not.us33, label %.split30.us, label %tailrecurse.us31

.lr.ph.us34:                                      ; preds = %tailrecurse.us31, %81
  %.026.us27.us = phi i64 [ %83, %81 ], [ %68, %tailrecurse.us31 ]
  %74 = load ptr, ptr %.tr.us32, align 8
  %75 = getelementptr inbounds i8, ptr %74, i64 16
  %76 = load ptr, ptr %75, align 8
  %77 = tail call noundef ptr %76(ptr noundef nonnull align 8 dereferenceable(153) %.tr.us32, i64 noundef %.026.us27.us)
  %.not20.us28.us = icmp eq ptr %77, null
  br i1 %.not20.us28.us, label %81, label %78

78:                                               ; preds = %.lr.ph.us34
  %79 = load i64, ptr %77, align 8
  %80 = and i64 %79, 9223372036854775807
  store i64 %80, ptr %77, align 8
  br label %81

81:                                               ; preds = %78, %.lr.ph.us34
  %82 = load i64, ptr %65, align 8
  %83 = add i64 %82, %.026.us27.us
  %84 = icmp ult i64 %83, %70
  br i1 %84, label %.lr.ph.us34, label %._crit_edge.split.split.us.us, !llvm.loop !8

tailrecurse:                                      ; preds = %.split, %._crit_edge.split.split
  %.tr = phi ptr [ %100, %._crit_edge.split.split ], [ %0, %.split ]
  %85 = getelementptr inbounds i8, ptr %.tr, i64 40
  %86 = load i64, ptr %85, align 8
  %87 = sub i64 0, %86
  %88 = and i64 %87, %1
  %89 = add i64 %7, %86
  %90 = and i64 %89, %87
  %91 = icmp ult i64 %88, %90
  br i1 %91, label %.lr.ph, label %._crit_edge.split.split

.lr.ph:                                           ; preds = %tailrecurse, %.lr.ph
  %.026 = phi i64 [ %97, %.lr.ph ], [ %88, %tailrecurse ]
  %92 = load ptr, ptr %.tr, align 8
  %93 = getelementptr inbounds i8, ptr %92, i64 16
  %94 = load ptr, ptr %93, align 8
  %95 = tail call noundef ptr %94(ptr noundef nonnull align 8 dereferenceable(153) %.tr, i64 noundef %.026)
  %96 = load i64, ptr %85, align 8
  %97 = add i64 %96, %.026
  %98 = icmp ult i64 %97, %90
  br i1 %98, label %.lr.ph, label %._crit_edge.split.split, !llvm.loop !8

._crit_edge.split.split:                          ; preds = %.lr.ph, %tailrecurse
  %99 = getelementptr inbounds i8, ptr %.tr, i64 16
  %100 = load ptr, ptr %99, align 8
  %.not = icmp eq ptr %100, null
  br i1 %.not, label %.split30.us, label %tailrecurse

.split30.us:                                      ; preds = %._crit_edge.split.split, %._crit_edge.split.split.us.us, %._crit_edge.split.us.us.split, %._crit_edge.split.us.us.split.us.us
  ret void
}